; Function Attrs: nounwind uwtable
define dso_local i64 @flt8_mul_cash(ptr noundef readonly captures(none) %0) local_unnamed_addr #0 {
  %2 = getelementptr inbounds nuw i8, ptr %0, i64 32
  %3 = load double, ptr %2, align 8
  %4 = getelementptr inbounds nuw i8, ptr %0, i64 48
  %5 = load i64, ptr %4, align 8
  %6 = sitofp i64 %5 to double
  %7 = fmul double %3, %6
  %8 = tail call double @llvm.fabs.f64(double %7)
  %9 = fcmp oeq double %8, 0x7FF0000000000000
  br i1 %9, label %10, label %14, !prof !17

10:                                               ; preds = %1
  %11 = tail call double @llvm.fabs.f64(double %3)
  %12 = fcmp oeq double %11, 0x7FF0000000000000
  br i1 %12, label %14, label %13

13:                                               ; preds = %10
  tail call void @float_overflow_error() #17
  unreachable

14:                                               ; preds = %10, %1
  %15 = fcmp oeq double %7, 0.000000e+00
  br i1 %15, label %16, label %float8_mul.exit.i, !prof !17

16:                                               ; preds = %14
  %17 = icmp ne i64 %5, 0
  %18 = fcmp une double %3, 0.000000e+00
  %or.cond.i.i = and i1 %18, %17
  br i1 %or.cond.i.i, label %19, label %float8_mul.exit.i

19:                                               ; preds = %16
  tail call void @float_underflow_error() #17
  unreachable

float8_mul.exit.i:                                ; preds = %16, %14
  %20 = tail call double @llvm.rint.f64(double %7)
  %21 = fcmp uno double %20, 0.000000e+00
  br i1 %21, label %.critedge.i, label %22

22:                                               ; preds = %float8_mul.exit.i
  %23 = fcmp ult double %20, 0xC3E0000000000000
  %24 = fcmp uge double %20, 0x43E0000000000000
  %.not6.i = or i1 %23, %24
  br i1 %.not6.i, label %.critedge.i, label %cash_mul_float8.exit, !prof !17

.critedge.i:                                      ; preds = %22, %float8_mul.exit.i
  %25 = tail call zeroext i1 @errstart_cold(i32 noundef 21, ptr noundef null) #16
  tail call void @llvm.assume(i1 %25)
  %26 = tail call i32 @errcode(i32 noundef 50331778) #13
  %27 = tail call i32 (ptr, ...) @errmsg(ptr noundef nonnull @.str.25) #13
  tail call void @errfinish(ptr noundef nonnull @.str.7, i32 noundef 124, ptr noundef nonnull @__func__.cash_mul_float8) #13
  unreachable

cash_mul_float8.exit:                             ; preds = %22
  %28 = fptosi double %20 to i64
  ret i64 %28
}